target datalayout = "e-m:e-p270:32:32-p271:32:32-p272:64:64-i64:64-i128:128-f80:128-n8:16:32:64-S128"
target triple = "x86_64-pc-linux-gnu"

%struct.Vec_Wrd_t_ = type { i32, i32, ptr }

; Function Attrs: inlinehint nounwind uwtable
define internal i32 @Abc_TtCountOnes(i64 noundef %0) #2 {
  %2 = alloca i64, align 8
  store i64 %0, ptr %2, align 8, !tbaa !17
  %3 = load i64, ptr %2, align 8, !tbaa !17
  %4 = load i64, ptr %2, align 8, !tbaa !17
  %5 = lshr i64 %4, 1
  %6 = and i64 %5, 6148914691236517205
  %7 = sub i64 %3, %6
  store i64 %7, ptr %2, align 8, !tbaa !17
  %8 = load i64, ptr %2, align 8, !tbaa !17
  %9 = and i64 %8, 3689348814741910323
  %10 = load i64, ptr %2, align 8, !tbaa !17
  %11 = lshr i64 %10, 2
  %12 = and i64 %11, 3689348814741910323
  %13 = add i64 %9, %12
  store i64 %13, ptr %2, align 8, !tbaa !17
  %14 = load i64, ptr %2, align 8, !tbaa !17
  %15 = load i64, ptr %2, align 8, !tbaa !17
  %16 = lshr i64 %15, 4
  %17 = add i64 %14, %16
  %18 = and i64 %17, 1085102592571150095
  store i64 %18, ptr %2, align 8, !tbaa !17
  %19 = load i64, ptr %2, align 8, !tbaa !17
  %20 = load i64, ptr %2, align 8, !tbaa !17
  %21 = lshr i64 %20, 8
  %22 = add i64 %19, %21
  store i64 %22, ptr %2, align 8, !tbaa !17
  %23 = load i64, ptr %2, align 8, !tbaa !17
  %24 = load i64, ptr %2, align 8, !tbaa !17
  %25 = lshr i64 %24, 16
  %26 = add i64 %23, %25
  store i64 %26, ptr %2, align 8, !tbaa !17
  %27 = load i64, ptr %2, align 8, !tbaa !17
  %28 = load i64, ptr %2, align 8, !tbaa !17
  %29 = lshr i64 %28, 32
  %30 = add i64 %27, %29
  store i64 %30, ptr %2, align 8, !tbaa !17
  %31 = load i64, ptr %2, align 8, !tbaa !17
  %32 = and i64 %31, 255
  %33 = trunc i64 %32 to i32
  ret i32 %33
}

; Function Attrs: inlinehint nounwind uwtable
define internal i32 @Abc_TtCountOnes2(i64 noundef %0) #2 {
  %2 = alloca i64, align 8
  store i64 %0, ptr %2, align 8, !tbaa !17
  %3 = load i64, ptr %2, align 8, !tbaa !17
  %4 = icmp ne i64 %3, 0
  br i1 %4, label %5, label %8

5:                                                ; preds = %1
  %6 = load i64, ptr %2, align 8, !tbaa !17
  %7 = call i32 @Abc_TtCountOnes(i64 noundef %6)
  br label %9

8:                                                ; preds = %1
  br label %9

9:                                                ; preds = %8, %5
  %10 = phi i32 [ %7, %5 ], [ 0, %8 ]
  ret i32 %10
}

; Function Attrs: inlinehint nounwind uwtable
define internal i32 @Abc_TtCountOnesVec(ptr noundef %0, i32 noundef %1) #2 {
  %3 = alloca ptr, align 8
  %4 = alloca i32, align 4
  %5 = alloca i32, align 4
  %6 = alloca i32, align 4
  store ptr %0, ptr %3, align 8, !tbaa !10
  store i32 %1, ptr %4, align 4, !tbaa !8
  call void @llvm.lifetime.start.p0(i64 4, ptr %5) #15
  call void @llvm.lifetime.start.p0(i64 4, ptr %6) #15
  store i32 0, ptr %6, align 4, !tbaa !8
  store i32 0, ptr %5, align 4, !tbaa !8
  br label %7

7:                                                ; preds = %20, %2
  %8 = load i32, ptr %5, align 4, !tbaa !8
  %9 = load i32, ptr %4, align 4, !tbaa !8
  %10 = icmp slt i32 %8, %9
  br i1 %10, label %11, label %23

11:                                               ; preds = %7
  %12 = load ptr, ptr %3, align 8, !tbaa !10
  %13 = load i32, ptr %5, align 4, !tbaa !8
  %14 = sext i32 %13 to i64
  %15 = getelementptr inbounds i64, ptr %12, i64 %14
  %16 = load i64, ptr %15, align 8, !tbaa !17
  %17 = call i32 @Abc_TtCountOnes2(i64 noundef %16)
  %18 = load i32, ptr %6, align 4, !tbaa !8
  %19 = add nsw i32 %18, %17
  store i32 %19, ptr %6, align 4, !tbaa !8
  br label %20

20:                                               ; preds = %11
  %21 = load i32, ptr %5, align 4, !tbaa !8
  %22 = add nsw i32 %21, 1
  store i32 %22, ptr %5, align 4, !tbaa !8
  br label %7, !llvm.loop !23

23:                                               ; preds = %7
  %24 = load i32, ptr %6, align 4, !tbaa !8
  call void @llvm.lifetime.end.p0(i64 4, ptr %6) #15
  call void @llvm.lifetime.end.p0(i64 4, ptr %5) #15
  ret i32 %24
}

; Function Attrs: inlinehint nounwind uwtable
define internal ptr @Vec_WrdEntryP(ptr noundef %0, i32 noundef %1) #2 {
  %3 = alloca ptr, align 8
  %4 = alloca i32, align 4
  store ptr %0, ptr %3, align 8, !tbaa !3
  store i32 %1, ptr %4, align 4, !tbaa !8
  %5 = load ptr, ptr %3, align 8, !tbaa !3
  %6 = getelementptr inbounds nuw %struct.Vec_Wrd_t_, ptr %5, i32 0, i32 2
  %7 = load ptr, ptr %6, align 8, !tbaa !16
  %8 = load i32, ptr %4, align 4, !tbaa !8
  %9 = sext i32 %8 to i64
  %10 = getelementptr inbounds i64, ptr %7, i64 %9
  ret ptr %10
}

; Function Attrs: inlinehint nounwind uwtable
define internal i32 @Vec_WrdSize(ptr noundef %0) #2 {
  %2 = alloca ptr, align 8
  store ptr %0, ptr %2, align 8, !tbaa !3
  %3 = load ptr, ptr %2, align 8, !tbaa !3
  %4 = getelementptr inbounds nuw %struct.Vec_Wrd_t_, ptr %3, i32 0, i32 1
  %5 = load i32, ptr %4, align 4, !tbaa !14
  ret i32 %5
}

; Function Attrs: nounwind uwtable
define i32 @Supp_ManCostInit(ptr noundef %0, i32 noundef %1) #0 {
  %3 = alloca ptr, align 8
  %4 = alloca i32, align 4
  %5 = alloca i32, align 4
  %6 = alloca i32, align 4
  %7 = alloca i32, align 4
  %8 = alloca ptr, align 8
  %9 = alloca ptr, align 8
  store ptr %0, ptr %3, align 8, !tbaa !3
  store i32 %1, ptr %4, align 4, !tbaa !8
  call void @llvm.lifetime.start.p0(i64 4, ptr %5) #15
  store i32 0, ptr %5, align 4, !tbaa !8
  call void @llvm.lifetime.start.p0(i64 4, ptr %6) #15
  call void @llvm.lifetime.start.p0(i64 4, ptr %7) #15
  %10 = load ptr, ptr %3, align 8, !tbaa !3
  %11 = call i32 @Vec_WrdSize(ptr noundef %10)
  %12 = load i32, ptr %4, align 4, !tbaa !8
  %13 = sdiv i32 %11, %12
  %14 = sdiv i32 %13, 2
  store i32 %14, ptr %7, align 4, !tbaa !8
  store i32 0, ptr %6, align 4, !tbaa !8
  br label %15

15:                                               ; preds = %43, %2
  %16 = load i32, ptr %6, align 4, !tbaa !8
  %17 = load i32, ptr %7, align 4, !tbaa !8
  %18 = icmp slt i32 %16, %17
  br i1 %18, label %19, label %46

19:                                               ; preds = %15
  call void @llvm.lifetime.start.p0(i64 8, ptr %8) #15
  %20 = load ptr, ptr %3, align 8, !tbaa !3
  %21 = load i32, ptr %6, align 4, !tbaa !8
  %22 = mul nsw i32 2, %21
  %23 = add nsw i32 %22, 0
  %24 = load i32, ptr %4, align 4, !tbaa !8
  %25 = mul nsw i32 %23, %24
  %26 = call ptr @Vec_WrdEntryP(ptr noundef %20, i32 noundef %25)
  store ptr %26, ptr %8, align 8, !tbaa !10
  call void @llvm.lifetime.start.p0(i64 8, ptr %9) #15
  %27 = load ptr, ptr %3, align 8, !tbaa !3
  %28 = load i32, ptr %6, align 4, !tbaa !8
  %29 = mul nsw i32 2, %28
  %30 = add nsw i32 %29, 1
  %31 = load i32, ptr %4, align 4, !tbaa !8
  %32 = mul nsw i32 %30, %31
  %33 = call ptr @Vec_WrdEntryP(ptr noundef %27, i32 noundef %32)
  store ptr %33, ptr %9, align 8, !tbaa !10
  %34 = load ptr, ptr %8, align 8, !tbaa !10
  %35 = load i32, ptr %4, align 4, !tbaa !8
  %36 = call i32 @Abc_TtCountOnesVec(ptr noundef %34, i32 noundef %35)
  %37 = load ptr, ptr %9, align 8, !tbaa !10
  %38 = load i32, ptr %4, align 4, !tbaa !8
  %39 = call i32 @Abc_TtCountOnesVec(ptr noundef %37, i32 noundef %38)
  %40 = mul nsw i32 %36, %39
  %41 = load i32, ptr %5, align 4, !tbaa !8
  %42 = add nsw i32 %41, %40
  store i32 %42, ptr %5, align 4, !tbaa !8
  call void @llvm.lifetime.end.p0(i64 8, ptr %9) #15
  call void @llvm.lifetime.end.p0(i64 8, ptr %8) #15
  br label %43

43:                                               ; preds = %19
  %44 = load i32, ptr %6, align 4, !tbaa !8
  %45 = add nsw i32 %44, 1
  store i32 %45, ptr %6, align 4, !tbaa !8
  br label %15, !llvm.loop !22

46:                                               ; preds = %15
  %47 = load i32, ptr %7, align 4, !tbaa !8
  %48 = shl i32 %47, 24
  %49 = load i32, ptr %5, align 4, !tbaa !8
  %50 = or i32 %48, %49
  call void @llvm.lifetime.end.p0(i64 4, ptr %7) #15
  call void @llvm.lifetime.end.p0(i64 4, ptr %6) #15
  call void @llvm.lifetime.end.p0(i64 4, ptr %5) #15
  ret i32 %50
}