; Function Attrs: nofree norecurse nosync nounwind memory(read, inaccessiblemem: none) uwtable
define i32 @Supp_ManCostInit(ptr noundef readonly captures(none) %0, i32 noundef %1) local_unnamed_addr #2 {
  %3 = getelementptr i8, ptr %0, i64 4
  %.val = load i32, ptr %3, align 4, !tbaa !3
  %4 = sdiv i32 %.val, %1
  %5 = sdiv i32 %4, 2
  %6 = icmp sgt i32 %4, 1
  br i1 %6, label %.lr.ph, label %._crit_edge

.lr.ph:                                           ; preds = %2
  %7 = getelementptr i8, ptr %0, i64 8
  %.val20 = load ptr, ptr %7, align 8, !tbaa !10
  %8 = icmp sgt i32 %1, 0
  %wide.trip.count.i = zext i32 %1 to i64
  br i1 %8, label %.lr.ph.preheader.i.us.preheader, label %._crit_edge

.lr.ph.preheader.i.us.preheader:                  ; preds = %.lr.ph
  %wide.trip.count = zext nneg i32 %5 to i64
  br label %.lr.ph.preheader.i.us

.lr.ph.preheader.i.us:                            ; preds = %.lr.ph.preheader.i.us.preheader, %Abc_TtCountOnesVec.exit31.loopexit.us
  %indvars.iv = phi i64 [ 0, %.lr.ph.preheader.i.us.preheader ], [ %indvars.iv.next, %Abc_TtCountOnesVec.exit31.loopexit.us ]
  %.036.us = phi i32 [ 0, %.lr.ph.preheader.i.us.preheader ], [ %62, %Abc_TtCountOnesVec.exit31.loopexit.us ]
  %9 = shl nuw nsw i64 %indvars.iv, 1
  %10 = mul nuw nsw i64 %9, %wide.trip.count.i
  %11 = getelementptr inbounds nuw i64, ptr %.val20, i64 %10
  %12 = or disjoint i64 %9, 1
  %13 = mul nuw nsw i64 %12, %wide.trip.count.i
  br label %.lr.ph.i.us

.lr.ph.i.us:                                      ; preds = %Abc_TtCountOnes2.exit.i.us, %.lr.ph.preheader.i.us
  %indvars.iv.i.us = phi i64 [ 0, %.lr.ph.preheader.i.us ], [ %indvars.iv.next.i.us, %Abc_TtCountOnes2.exit.i.us ]
  %.08.i.us = phi i32 [ 0, %.lr.ph.preheader.i.us ], [ %36, %Abc_TtCountOnes2.exit.i.us ]
  %14 = getelementptr inbounds nuw i64, ptr %11, i64 %indvars.iv.i.us
  %15 = load i64, ptr %14, align 8, !tbaa !11
  %.not.i.i.us = icmp eq i64 %15, 0
  br i1 %.not.i.i.us, label %Abc_TtCountOnes2.exit.i.us, label %16

16:                                               ; preds = %.lr.ph.i.us
  %17 = lshr i64 %15, 1
  %18 = and i64 %17, 6148914691236517205
  %19 = sub i64 %15, %18
  %20 = and i64 %19, 3689348814741910323
  %21 = lshr i64 %19, 2
  %22 = and i64 %21, 3689348814741910323
  %23 = add nuw nsw i64 %22, %20
  %24 = lshr i64 %23, 4
  %25 = add nuw nsw i64 %24, %23
  %26 = and i64 %25, 1085102592571150095
  %27 = lshr i64 %26, 8
  %28 = add nuw nsw i64 %27, %26
  %29 = lshr i64 %28, 16
  %30 = add nuw nsw i64 %29, %28
  %31 = lshr i64 %30, 32
  %32 = add nuw nsw i64 %31, %30
  %33 = trunc i64 %32 to i32
  %34 = and i32 %33, 255
  br label %Abc_TtCountOnes2.exit.i.us

Abc_TtCountOnes2.exit.i.us:                       ; preds = %16, %.lr.ph.i.us
  %35 = phi i32 [ %34, %16 ], [ 0, %.lr.ph.i.us ]
  %36 = add nuw nsw i32 %35, %.08.i.us
  %indvars.iv.next.i.us = add nuw nsw i64 %indvars.iv.i.us, 1
  %exitcond.not.i.us = icmp eq i64 %indvars.iv.next.i.us, %wide.trip.count.i
  br i1 %exitcond.not.i.us, label %.lr.ph.preheader.i22.us, label %.lr.ph.i.us, !llvm.loop !17

.lr.ph.preheader.i22.us:                          ; preds = %Abc_TtCountOnes2.exit.i.us
  %37 = getelementptr inbounds nuw i64, ptr %.val20, i64 %13
  br label %.lr.ph.i24.us

.lr.ph.i24.us:                                    ; preds = %Abc_TtCountOnes2.exit.i28.us, %.lr.ph.preheader.i22.us
  %indvars.iv.i25.us = phi i64 [ 0, %.lr.ph.preheader.i22.us ], [ %indvars.iv.next.i29.us, %Abc_TtCountOnes2.exit.i28.us ]
  %.08.i26.us = phi i32 [ 0, %.lr.ph.preheader.i22.us ], [ %60, %Abc_TtCountOnes2.exit.i28.us ]
  %38 = getelementptr inbounds nuw i64, ptr %37, i64 %indvars.iv.i25.us
  %39 = load i64, ptr %38, align 8, !tbaa !11
  %.not.i.i27.us = icmp eq i64 %39, 0
  br i1 %.not.i.i27.us, label %Abc_TtCountOnes2.exit.i28.us, label %40

40:                                               ; preds = %.lr.ph.i24.us
  %41 = lshr i64 %39, 1
  %42 = and i64 %41, 6148914691236517205
  %43 = sub i64 %39, %42
  %44 = and i64 %43, 3689348814741910323
  %45 = lshr i64 %43, 2
  %46 = and i64 %45, 3689348814741910323
  %47 = add nuw nsw i64 %46, %44
  %48 = lshr i64 %47, 4
  %49 = add nuw nsw i64 %48, %47
  %50 = and i64 %49, 1085102592571150095
  %51 = lshr i64 %50, 8
  %52 = add nuw nsw i64 %51, %50
  %53 = lshr i64 %52, 16
  %54 = add nuw nsw i64 %53, %52
  %55 = lshr i64 %54, 32
  %56 = add nuw nsw i64 %55, %54
  %57 = trunc i64 %56 to i32
  %58 = and i32 %57, 255
  br label %Abc_TtCountOnes2.exit.i28.us

Abc_TtCountOnes2.exit.i28.us:                     ; preds = %40, %.lr.ph.i24.us
  %59 = phi i32 [ %58, %40 ], [ 0, %.lr.ph.i24.us ]
  %60 = add nuw nsw i32 %59, %.08.i26.us
  %indvars.iv.next.i29.us = add nuw nsw i64 %indvars.iv.i25.us, 1
  %exitcond.not.i30.us = icmp eq i64 %indvars.iv.next.i29.us, %wide.trip.count.i
  br i1 %exitcond.not.i30.us, label %Abc_TtCountOnesVec.exit31.loopexit.us, label %.lr.ph.i24.us, !llvm.loop !17

Abc_TtCountOnesVec.exit31.loopexit.us:            ; preds = %Abc_TtCountOnes2.exit.i28.us
  %61 = mul nuw nsw i32 %60, %36
  %62 = add nuw nsw i32 %61, %.036.us
  %indvars.iv.next = add nuw nsw i64 %indvars.iv, 1
  %exitcond.not = icmp eq i64 %indvars.iv.next, %wide.trip.count
  br i1 %exitcond.not, label %._crit_edge, label %.lr.ph.preheader.i.us, !llvm.loop !18

._crit_edge:                                      ; preds = %Abc_TtCountOnesVec.exit31.loopexit.us, %.lr.ph, %2
  %.0.lcssa = phi i32 [ 0, %2 ], [ 0, %.lr.ph ], [ %62, %Abc_TtCountOnesVec.exit31.loopexit.us ]
  %63 = shl i32 %5, 24
  %64 = or i32 %.0.lcssa, %63
  ret i32 %64
}